target datalayout = "e-m:e-p270:32:32-p271:32:32-p272:64:64-i64:64-i128:128-f80:128-n8:16:32:64-S128"
target triple = "x86_64-unknown-linux-gnu"

%"class.icu_75::UnicodeString" = type { %"class.icu_75::Replaceable", %"union.icu_75::UnicodeString::StackBufferOrFields" }
%"class.icu_75::Replaceable" = type { %"class.icu_75::UObject" }
%"class.icu_75::UObject" = type { ptr }
%"union.icu_75::UnicodeString::StackBufferOrFields" = type { %struct.anon.0, [32 x i8] }
%struct.anon.0 = type { i16, i32, i32, ptr }
%struct.anon = type { i16, [27 x i16] }

@_ZTVN6icu_7513UnicodeStringE = external unnamed_addr constant { [13 x ptr] }, align 8
@_ZTVN6icu_7511ReplaceableE = external unnamed_addr constant { [13 x ptr] }, align 8
@_ZTVN6icu_757UObjectE = external unnamed_addr constant { [5 x ptr] }, align 8

; Function Attrs: mustprogress nounwind uwtable
define linkonce_odr void @_ZN6icu_757UObjectC2Ev(ptr noundef nonnull align 8 dereferenceable(8) %this) unnamed_addr #1 comdat align 2 {
entry:
  %this.addr = alloca ptr, align 8
  store ptr %this, ptr %this.addr, align 8
  %this1 = load ptr, ptr %this.addr, align 8
  store ptr getelementptr inbounds ({ [5 x ptr] }, ptr @_ZTVN6icu_757UObjectE, i32 0, i32 0, i32 2), ptr %this1, align 8
  ret void
}

; Function Attrs: mustprogress nounwind uwtable
define linkonce_odr void @_ZN6icu_7511ReplaceableC2Ev(ptr noundef nonnull align 8 dereferenceable(8) %this) unnamed_addr #1 comdat align 2 {
entry:
  %this.addr = alloca ptr, align 8
  store ptr %this, ptr %this.addr, align 8
  %this1 = load ptr, ptr %this.addr, align 8
  call void @_ZN6icu_757UObjectC2Ev(ptr noundef nonnull align 8 dereferenceable(8) %this1) #6
  store ptr getelementptr inbounds ({ [13 x ptr] }, ptr @_ZTVN6icu_7511ReplaceableE, i32 0, i32 0, i32 2), ptr %this1, align 8
  ret void
}

; Function Attrs: mustprogress nounwind uwtable
define linkonce_odr noundef i32 @_ZNK6icu_7513UnicodeString14getShortLengthEv(ptr noundef nonnull align 8 dereferenceable(64) %this) #1 comdat align 2 {
entry:
  %this.addr = alloca ptr, align 8
  store ptr %this, ptr %this.addr, align 8
  %this1 = load ptr, ptr %this.addr, align 8
  %fUnion = getelementptr inbounds %"class.icu_75::UnicodeString", ptr %this1, i32 0, i32 1
  %fLengthAndFlags = getelementptr inbounds %struct.anon.0, ptr %fUnion, i32 0, i32 0
  %0 = load i16, ptr %fLengthAndFlags, align 8
  %conv = sext i16 %0 to i32
  %shr = ashr i32 %conv, 5
  ret i32 %shr
}

; Function Attrs: mustprogress nounwind uwtable
define linkonce_odr noundef signext i8 @_ZNK6icu_7513UnicodeString14hasShortLengthEv(ptr noundef nonnull align 8 dereferenceable(64) %this) #1 comdat align 2 {
entry:
  %this.addr = alloca ptr, align 8
  store ptr %this, ptr %this.addr, align 8
  %this1 = load ptr, ptr %this.addr, align 8
  %fUnion = getelementptr inbounds %"class.icu_75::UnicodeString", ptr %this1, i32 0, i32 1
  %fLengthAndFlags = getelementptr inbounds %struct.anon.0, ptr %fUnion, i32 0, i32 0
  %0 = load i16, ptr %fLengthAndFlags, align 8
  %conv = sext i16 %0 to i32
  %cmp = icmp sge i32 %conv, 0
  %conv2 = zext i1 %cmp to i8
  ret i8 %conv2
}

; Function Attrs: mustprogress nounwind uwtable
define linkonce_odr void @_ZN6icu_7513UnicodeString13setZeroLengthEv(ptr noundef nonnull align 8 dereferenceable(64) %this) #1 comdat align 2 {
entry:
  %this.addr = alloca ptr, align 8
  store ptr %this, ptr %this.addr, align 8
  %this1 = load ptr, ptr %this.addr, align 8
  %fUnion = getelementptr inbounds %"class.icu_75::UnicodeString", ptr %this1, i32 0, i32 1
  %fLengthAndFlags = getelementptr inbounds %struct.anon.0, ptr %fUnion, i32 0, i32 0
  %0 = load i16, ptr %fLengthAndFlags, align 8
  %conv = sext i16 %0 to i32
  %and = and i32 %conv, 31
  %conv2 = trunc i32 %and to i16
  store i16 %conv2, ptr %fLengthAndFlags, align 8
  ret void
}

; Function Attrs: mustprogress nounwind uwtable
define linkonce_odr void @_ZN6icu_7513UnicodeString10setToEmptyEv(ptr noundef nonnull align 8 dereferenceable(64) %this) #1 comdat align 2 {
entry:
  %this.addr = alloca ptr, align 8
  store ptr %this, ptr %this.addr, align 8
  %this1 = load ptr, ptr %this.addr, align 8
  %fUnion = getelementptr inbounds %"class.icu_75::UnicodeString", ptr %this1, i32 0, i32 1
  %fLengthAndFlags = getelementptr inbounds %struct.anon.0, ptr %fUnion, i32 0, i32 0
  store i16 2, ptr %fLengthAndFlags, align 8
  ret void
}

; Function Attrs: mustprogress nounwind uwtable
define linkonce_odr noundef signext i8 @_ZNK6icu_7513UnicodeString7isBogusEv(ptr noundef nonnull align 8 dereferenceable(64) %this) #1 comdat align 2 {
entry:
  %this.addr = alloca ptr, align 8
  store ptr %this, ptr %this.addr, align 8
  %this1 = load ptr, ptr %this.addr, align 8
  %fUnion = getelementptr inbounds %"class.icu_75::UnicodeString", ptr %this1, i32 0, i32 1
  %fLengthAndFlags = getelementptr inbounds %struct.anon.0, ptr %fUnion, i32 0, i32 0
  %0 = load i16, ptr %fLengthAndFlags, align 8
  %conv = sext i16 %0 to i32
  %and = and i32 %conv, 1
  %conv2 = trunc i32 %and to i8
  ret i8 %conv2
}

; Function Attrs: mustprogress uwtable
define linkonce_odr void @_ZN6icu_7513UnicodeStringC2Ev(ptr noundef nonnull align 8 dereferenceable(64) %this) unnamed_addr #0 comdat align 2 {
entry:
  %this.addr = alloca ptr, align 8
  store ptr %this, ptr %this.addr, align 8
  %this1 = load ptr, ptr %this.addr, align 8
  call void @_ZN6icu_7511ReplaceableC2Ev(ptr noundef nonnull align 8 dereferenceable(8) %this1)
  store ptr getelementptr inbounds ({ [13 x ptr] }, ptr @_ZTVN6icu_7513UnicodeStringE, i32 0, i32 0, i32 2), ptr %this1, align 8
  %fUnion2 = getelementptr inbounds %"class.icu_75::UnicodeString", ptr %this1, i32 0, i32 1
  %fLengthAndFlags = getelementptr inbounds %struct.anon, ptr %fUnion2, i32 0, i32 0
  store i16 2, ptr %fLengthAndFlags, align 8
  ret void
}

; Function Attrs: mustprogress nounwind uwtable
define internal noundef signext i8 @_ZL9U_FAILURE10UErrorCode(i32 noundef %code) #1 {
entry:
  %code.addr = alloca i32, align 4
  store i32 %code, ptr %code.addr, align 4
  %0 = load i32, ptr %code.addr, align 4
  %cmp = icmp sgt i32 %0, 0
  %conv = zext i1 %cmp to i8
  ret i8 %conv
}

; Function Attrs: mustprogress uwtable
define linkonce_odr noundef i32 @_ZNK6icu_7513UnicodeString6lengthEv(ptr noundef nonnull align 8 dereferenceable(64) %this) #0 comdat align 2 {
entry:
  %this.addr = alloca ptr, align 8
  store ptr %this, ptr %this.addr, align 8
  %this1 = load ptr, ptr %this.addr, align 8
  %call = call noundef signext i8 @_ZNK6icu_7513UnicodeString14hasShortLengthEv(ptr noundef nonnull align 8 dereferenceable(64) %this1)
  %tobool = icmp ne i8 %call, 0
  br i1 %tobool, label %cond.true, label %cond.false

cond.true:                                        ; preds = %entry
  %call2 = call noundef i32 @_ZNK6icu_7513UnicodeString14getShortLengthEv(ptr noundef nonnull align 8 dereferenceable(64) %this1)
  br label %cond.end

cond.false:                                       ; preds = %entry
  %fUnion = getelementptr inbounds %"class.icu_75::UnicodeString", ptr %this1, i32 0, i32 1
  %fLength = getelementptr inbounds %struct.anon.0, ptr %fUnion, i32 0, i32 1
  %0 = load i32, ptr %fLength, align 4
  br label %cond.end

cond.end:                                         ; preds = %cond.false, %cond.true
  %cond = phi i32 [ %call2, %cond.true ], [ %0, %cond.false ]
  ret i32 %cond
}

; Function Attrs: mustprogress nounwind uwtable
define linkonce_odr noundef ptr @_ZNK6icu_7513UnicodeString9getBufferEv(ptr noundef nonnull align 8 dereferenceable(64) %this) #1 comdat align 2 {
entry:
  %retval = alloca ptr, align 8
  %this.addr = alloca ptr, align 8
  store ptr %this, ptr %this.addr, align 8
  %this1 = load ptr, ptr %this.addr, align 8
  %fUnion = getelementptr inbounds %"class.icu_75::UnicodeString", ptr %this1, i32 0, i32 1
  %fLengthAndFlags = getelementptr inbounds %struct.anon.0, ptr %fUnion, i32 0, i32 0
  %0 = load i16, ptr %fLengthAndFlags, align 8
  %conv = sext i16 %0 to i32
  %and = and i32 %conv, 17
  %tobool = icmp ne i32 %and, 0
  br i1 %tobool, label %if.then, label %if.else

if.then:                                          ; preds = %entry
  store ptr null, ptr %retval, align 8
  br label %return

if.else:                                          ; preds = %entry
  %fUnion2 = getelementptr inbounds %"class.icu_75::UnicodeString", ptr %this1, i32 0, i32 1
  %fLengthAndFlags3 = getelementptr inbounds %struct.anon.0, ptr %fUnion2, i32 0, i32 0
  %1 = load i16, ptr %fLengthAndFlags3, align 8
  %conv4 = sext i16 %1 to i32
  %and5 = and i32 %conv4, 2
  %tobool6 = icmp ne i32 %and5, 0
  br i1 %tobool6, label %if.then7, label %if.else9

if.then7:                                         ; preds = %if.else
  %fUnion8 = getelementptr inbounds %"class.icu_75::UnicodeString", ptr %this1, i32 0, i32 1
  %fBuffer = getelementptr inbounds %struct.anon, ptr %fUnion8, i32 0, i32 1
  %arraydecay = getelementptr inbounds [27 x i16], ptr %fBuffer, i64 0, i64 0
  store ptr %arraydecay, ptr %retval, align 8
  br label %return

if.else9:                                         ; preds = %if.else
  %fUnion10 = getelementptr inbounds %"class.icu_75::UnicodeString", ptr %this1, i32 0, i32 1
  %fArray = getelementptr inbounds %struct.anon.0, ptr %fUnion10, i32 0, i32 3
  %2 = load ptr, ptr %fArray, align 8
  store ptr %2, ptr %retval, align 8
  br label %return

return:                                           ; preds = %if.else9, %if.then7, %if.then
  %3 = load ptr, ptr %retval, align 8
  ret ptr %3
}

; Function Attrs: mustprogress uwtable
define linkonce_odr noundef nonnull align 8 dereferenceable(64) ptr @_ZN6icu_7513UnicodeString6removeEv(ptr noundef nonnull align 8 dereferenceable(64) %this) #0 comdat align 2 {
entry:
  %this.addr = alloca ptr, align 8
  store ptr %this, ptr %this.addr, align 8
  %this1 = load ptr, ptr %this.addr, align 8
  %call = call noundef signext i8 @_ZNK6icu_7513UnicodeString7isBogusEv(ptr noundef nonnull align 8 dereferenceable(64) %this1)
  %tobool = icmp ne i8 %call, 0
  br i1 %tobool, label %if.then, label %if.else

if.then:                                          ; preds = %entry
  call void @_ZN6icu_7513UnicodeString10setToEmptyEv(ptr noundef nonnull align 8 dereferenceable(64) %this1)
  br label %if.end

if.else:                                          ; preds = %entry
  call void @_ZN6icu_7513UnicodeString13setZeroLengthEv(ptr noundef nonnull align 8 dereferenceable(64) %this1)
  br label %if.end

if.end:                                           ; preds = %if.else, %if.then
  ret ptr %this1
}

; Function Attrs: mustprogress uwtable
define noundef nonnull align 8 dereferenceable(64) ptr @_Z38uspoof_getBidiSkeletonUnicodeString_75PK13USpoofChecker14UBiDiDirectionRKN6icu_7513UnicodeStringERS4_P10UErrorCode(ptr noundef %sc, i32 noundef %direction, ptr noundef nonnull align 8 dereferenceable(64) %id, ptr noundef nonnull align 8 dereferenceable(64) %dest, ptr noundef %status) #0 personality ptr @__gxx_personality_v0 {
entry:
  %retval = alloca ptr, align 8
  %sc.addr = alloca ptr, align 8
  %direction.addr = alloca i32, align 4
  %id.addr = alloca ptr, align 8
  %dest.addr = alloca ptr, align 8
  %status.addr = alloca ptr, align 8
  %bidi = alloca ptr, align 8
  %reordered = alloca %"class.icu_75::UnicodeString", align 8
  %size = alloca i32, align 4
  %exn.slot = alloca ptr, align 8
  %ehselector.slot = alloca i32, align 4
  %reorderedBuffer = alloca ptr, align 8
  %cleanup.dest.slot = alloca i32, align 4
  %deprecatedType = alloca i32, align 4
  store ptr %sc, ptr %sc.addr, align 8
  store i32 %direction, ptr %direction.addr, align 4
  store ptr %id, ptr %id.addr, align 8
  store ptr %dest, ptr %dest.addr, align 8
  store ptr %status, ptr %status.addr, align 8
  %0 = load ptr, ptr %dest.addr, align 8
  %call = call noundef nonnull align 8 dereferenceable(64) ptr @_ZN6icu_7513UnicodeString6removeEv(ptr noundef nonnull align 8 dereferenceable(64) %0)
  %1 = load i32, ptr %direction.addr, align 4
  %cmp = icmp ne i32 %1, 0
  br i1 %cmp, label %land.lhs.true, label %if.end

land.lhs.true:                                    ; preds = %entry
  %2 = load i32, ptr %direction.addr, align 4
  %cmp1 = icmp ne i32 %2, 1
  br i1 %cmp1, label %if.then, label %if.end

if.then:                                          ; preds = %land.lhs.true
  %3 = load ptr, ptr %status.addr, align 8
  store i32 1, ptr %3, align 4
  %4 = load ptr, ptr %dest.addr, align 8
  store ptr %4, ptr %retval, align 8
  br label %return

if.end:                                           ; preds = %land.lhs.true, %entry
  %call2 = call ptr @ubidi_open_75()
  store ptr %call2, ptr %bidi, align 8
  %5 = load ptr, ptr %bidi, align 8
  %6 = load ptr, ptr %id.addr, align 8
  %call3 = call noundef ptr @_ZNK6icu_7513UnicodeString9getBufferEv(ptr noundef nonnull align 8 dereferenceable(64) %6)
  %7 = load ptr, ptr %id.addr, align 8
  %call4 = call noundef i32 @_ZNK6icu_7513UnicodeString6lengthEv(ptr noundef nonnull align 8 dereferenceable(64) %7)
  %8 = load i32, ptr %direction.addr, align 4
  %conv = trunc i32 %8 to i8
  %9 = load ptr, ptr %status.addr, align 8
  call void @ubidi_setPara_75(ptr noundef %5, ptr noundef %call3, i32 noundef %call4, i8 noundef zeroext %conv, ptr noundef null, ptr noundef %9)
  %10 = load ptr, ptr %status.addr, align 8
  %11 = load i32, ptr %10, align 4
  %call5 = call noundef signext i8 @_ZL9U_FAILURE10UErrorCode(i32 noundef %11)
  %tobool = icmp ne i8 %call5, 0
  br i1 %tobool, label %if.then6, label %if.end7

if.then6:                                         ; preds = %if.end
  %12 = load ptr, ptr %bidi, align 8
  call void @ubidi_close_75(ptr noundef %12)
  %13 = load ptr, ptr %dest.addr, align 8
  store ptr %13, ptr %retval, align 8
  br label %return

if.end7:                                          ; preds = %if.end
  call void @_ZN6icu_7513UnicodeStringC2Ev(ptr noundef nonnull align 8 dereferenceable(64) %reordered)
  %14 = load ptr, ptr %bidi, align 8
  %call8 = invoke i32 @ubidi_getProcessedLength_75(ptr noundef %14)
          to label %invoke.cont unwind label %lpad

invoke.cont:                                      ; preds = %if.end7
  store i32 %call8, ptr %size, align 4
  %15 = load i32, ptr %size, align 4
  %call10 = invoke noundef ptr @_ZN6icu_7513UnicodeString9getBufferEi(ptr noundef nonnull align 8 dereferenceable(64) %reordered, i32 noundef %15)
          to label %invoke.cont9 unwind label %lpad

invoke.cont9:                                     ; preds = %invoke.cont
  store ptr %call10, ptr %reorderedBuffer, align 8
  %16 = load ptr, ptr %reorderedBuffer, align 8
  %cmp11 = icmp eq ptr %16, null
  br i1 %cmp11, label %if.then12, label %if.end14

if.then12:                                        ; preds = %invoke.cont9
  %17 = load ptr, ptr %status.addr, align 8
  store i32 7, ptr %17, align 4
  %18 = load ptr, ptr %bidi, align 8
  invoke void @ubidi_close_75(ptr noundef %18)
          to label %invoke.cont13 unwind label %lpad

invoke.cont13:                                    ; preds = %if.then12
  %19 = load ptr, ptr %dest.addr, align 8
  store ptr %19, ptr %retval, align 8
  store i32 1, ptr %cleanup.dest.slot, align 4
  br label %cleanup

lpad:                                             ; preds = %if.end23, %invoke.cont18, %invoke.cont17, %invoke.cont15, %if.end14, %if.then12, %invoke.cont, %if.end7
  %20 = landingpad { ptr, i32 }
          cleanup
  %21 = extractvalue { ptr, i32 } %20, 0
  store ptr %21, ptr %exn.slot, align 8
  %22 = extractvalue { ptr, i32 } %20, 1
  store i32 %22, ptr %ehselector.slot, align 4
  call void @_ZN6icu_7513UnicodeStringD1Ev(ptr noundef nonnull align 8 dereferenceable(64) %reordered) #6
  br label %eh.resume

if.end14:                                         ; preds = %invoke.cont9
  %23 = load ptr, ptr %bidi, align 8
  %24 = load ptr, ptr %reorderedBuffer, align 8
  %25 = load i32, ptr %size, align 4
  %26 = load ptr, ptr %status.addr, align 8
  %call16 = invoke i32 @ubidi_writeReordered_75(ptr noundef %23, ptr noundef %24, i32 noundef %25, i16 noundef zeroext 3, ptr noundef %26)
          to label %invoke.cont15 unwind label %lpad

invoke.cont15:                                    ; preds = %if.end14
  %27 = load i32, ptr %size, align 4
  invoke void @_ZN6icu_7513UnicodeString13releaseBufferEi(ptr noundef nonnull align 8 dereferenceable(64) %reordered, i32 noundef %27)
          to label %invoke.cont17 unwind label %lpad

invoke.cont17:                                    ; preds = %invoke.cont15
  %28 = load ptr, ptr %bidi, align 8
  invoke void @ubidi_close_75(ptr noundef %28)
          to label %invoke.cont18 unwind label %lpad

invoke.cont18:                                    ; preds = %invoke.cont17
  %29 = load ptr, ptr %status.addr, align 8
  %30 = load i32, ptr %29, align 4
  %call20 = invoke noundef signext i8 @_ZL9U_FAILURE10UErrorCode(i32 noundef %30)
          to label %invoke.cont19 unwind label %lpad

invoke.cont19:                                    ; preds = %invoke.cont18
  %tobool21 = icmp ne i8 %call20, 0
  br i1 %tobool21, label %if.then22, label %if.end23

if.then22:                                        ; preds = %invoke.cont19
  %31 = load ptr, ptr %dest.addr, align 8
  store ptr %31, ptr %retval, align 8
  store i32 1, ptr %cleanup.dest.slot, align 4
  br label %cleanup

if.end23:                                         ; preds = %invoke.cont19
  store i32 58, ptr %deprecatedType, align 4
  %32 = load ptr, ptr %sc.addr, align 8
  %33 = load ptr, ptr %dest.addr, align 8
  %34 = load ptr, ptr %status.addr, align 8
  %call25 = invoke noundef nonnull align 8 dereferenceable(64) ptr @_Z34uspoof_getSkeletonUnicodeString_75PK13USpoofCheckerjRKN6icu_7513UnicodeStringERS3_P10UErrorCode(ptr noundef %32, i32 noundef 58, ptr noundef nonnull align 8 dereferenceable(64) %reordered, ptr noundef nonnull align 8 dereferenceable(64) %33, ptr noundef %34)
          to label %invoke.cont24 unwind label %lpad

invoke.cont24:                                    ; preds = %if.end23
  store ptr %call25, ptr %retval, align 8
  store i32 1, ptr %cleanup.dest.slot, align 4
  br label %cleanup

cleanup:                                          ; preds = %invoke.cont24, %if.then22, %invoke.cont13
  call void @_ZN6icu_7513UnicodeStringD1Ev(ptr noundef nonnull align 8 dereferenceable(64) %reordered) #6
  br label %return

return:                                           ; preds = %cleanup, %if.then6, %if.then
  %35 = load ptr, ptr %retval, align 8
  ret ptr %35

eh.resume:                                        ; preds = %lpad
  %exn = load ptr, ptr %exn.slot, align 8
  %sel = load i32, ptr %ehselector.slot, align 4
  %lpad.val = insertvalue { ptr, i32 } poison, ptr %exn, 0
  %lpad.val26 = insertvalue { ptr, i32 } %lpad.val, i32 %sel, 1
  resume { ptr, i32 } %lpad.val26
}