; Function Attrs: mustprogress uwtable
define noundef nonnull align 8 dereferenceable(64) ptr @_Z38uspoof_getBidiSkeletonUnicodeString_75PK13USpoofChecker14UBiDiDirectionRKN6icu_7513UnicodeStringERS4_P10UErrorCode(ptr noundef %sc, i32 noundef %direction, ptr noundef nonnull align 8 dereferenceable(64) %id, ptr noundef nonnull returned align 8 dereferenceable(64) %dest, ptr noundef %status) local_unnamed_addr #0 personality ptr @__gxx_personality_v0 {
entry:
  %reordered = alloca %"class.icu_75::UnicodeString", align 8
  %fUnion.i.i = getelementptr inbounds i8, ptr %dest, i64 8
  %0 = load i16, ptr %fUnion.i.i, align 8
  %conv2.i3.i = and i16 %0, 1
  %tobool.not.i = icmp eq i16 %conv2.i3.i, 0
  %1 = and i16 %0, 30
  %storemerge.i = select i1 %tobool.not.i, i16 %1, i16 2
  store i16 %storemerge.i, ptr %fUnion.i.i, align 8
  %or.cond = icmp ugt i32 %direction, 1
  br i1 %or.cond, label %if.then, label %if.end

if.then:                                          ; preds = %entry
  store i32 1, ptr %status, align 4
  br label %return

if.end:                                           ; preds = %entry
  %call2 = tail call ptr @ubidi_open_75()
  %fUnion.i = getelementptr inbounds i8, ptr %id, i64 8
  %2 = load i16, ptr %fUnion.i, align 8
  %conv1.i = zext i16 %2 to i32
  %and.i = and i32 %conv1.i, 17
  %tobool.not.i23 = icmp eq i32 %and.i, 0
  br i1 %tobool.not.i23, label %if.else.i, label %_ZNK6icu_7513UnicodeString9getBufferEv.exit

if.else.i:                                        ; preds = %if.end
  %and5.i = and i32 %conv1.i, 2
  %tobool6.not.i = icmp eq i32 %and5.i, 0
  br i1 %tobool6.not.i, label %if.else9.i, label %if.then7.i

if.then7.i:                                       ; preds = %if.else.i
  %fBuffer.i = getelementptr inbounds i8, ptr %id, i64 10
  br label %_ZNK6icu_7513UnicodeString9getBufferEv.exit

if.else9.i:                                       ; preds = %if.else.i
  %fArray.i = getelementptr inbounds i8, ptr %id, i64 24
  %3 = load ptr, ptr %fArray.i, align 8
  br label %_ZNK6icu_7513UnicodeString9getBufferEv.exit

_ZNK6icu_7513UnicodeString9getBufferEv.exit:      ; preds = %if.end, %if.then7.i, %if.else9.i
  %retval.0.i = phi ptr [ %fBuffer.i, %if.then7.i ], [ %3, %if.else9.i ], [ null, %if.end ]
  %cmp.i.i = icmp slt i16 %2, 0
  %4 = ashr i16 %2, 5
  %shr.i.i = sext i16 %4 to i32
  %fLength.i = getelementptr inbounds i8, ptr %id, i64 12
  %5 = load i32, ptr %fLength.i, align 4
  %cond.i = select i1 %cmp.i.i, i32 %5, i32 %shr.i.i
  %conv = trunc i32 %direction to i8
  tail call void @ubidi_setPara_75(ptr noundef %call2, ptr noundef %retval.0.i, i32 noundef %cond.i, i8 noundef zeroext %conv, ptr noundef null, ptr noundef %status)
  %6 = load i32, ptr %status, align 4
  %cmp.i = icmp slt i32 %6, 1
  br i1 %cmp.i, label %if.end7, label %if.then6

if.then6:                                         ; preds = %_ZNK6icu_7513UnicodeString9getBufferEv.exit
  tail call void @ubidi_close_75(ptr noundef %call2)
  br label %return

if.end7:                                          ; preds = %_ZNK6icu_7513UnicodeString9getBufferEv.exit
  store ptr getelementptr inbounds ({ [13 x ptr] }, ptr @_ZTVN6icu_7513UnicodeStringE, i64 0, i32 0, i64 2), ptr %reordered, align 8
  %fUnion2.i = getelementptr inbounds i8, ptr %reordered, i64 8
  store i16 2, ptr %fUnion2.i, align 8
  %call8 = invoke i32 @ubidi_getProcessedLength_75(ptr noundef %call2)
          to label %invoke.cont unwind label %lpad

invoke.cont:                                      ; preds = %if.end7
  %call10 = invoke noundef ptr @_ZN6icu_7513UnicodeString9getBufferEi(ptr noundef nonnull align 8 dereferenceable(64) %reordered, i32 noundef %call8)
          to label %invoke.cont9 unwind label %lpad

invoke.cont9:                                     ; preds = %invoke.cont
  %cmp11 = icmp eq ptr %call10, null
  br i1 %cmp11, label %if.then12, label %if.end14

if.then12:                                        ; preds = %invoke.cont9
  store i32 7, ptr %status, align 4
  invoke void @ubidi_close_75(ptr noundef %call2)
          to label %cleanup unwind label %lpad

lpad:                                             ; preds = %if.end23, %invoke.cont17, %invoke.cont15, %if.end14, %if.then12, %invoke.cont, %if.end7
  %7 = landingpad { ptr, i32 }
          cleanup
  call void @_ZN6icu_7513UnicodeStringD1Ev(ptr noundef nonnull align 8 dereferenceable(64) %reordered) #6
  resume { ptr, i32 } %7

if.end14:                                         ; preds = %invoke.cont9
  %call16 = invoke i32 @ubidi_writeReordered_75(ptr noundef %call2, ptr noundef nonnull %call10, i32 noundef %call8, i16 noundef zeroext 3, ptr noundef nonnull %status)
          to label %invoke.cont15 unwind label %lpad

invoke.cont15:                                    ; preds = %if.end14
  invoke void @_ZN6icu_7513UnicodeString13releaseBufferEi(ptr noundef nonnull align 8 dereferenceable(64) %reordered, i32 noundef %call8)
          to label %invoke.cont17 unwind label %lpad

invoke.cont17:                                    ; preds = %invoke.cont15
  invoke void @ubidi_close_75(ptr noundef %call2)
          to label %invoke.cont18 unwind label %lpad

invoke.cont18:                                    ; preds = %invoke.cont17
  %8 = load i32, ptr %status, align 4
  %cmp.i25 = icmp slt i32 %8, 1
  br i1 %cmp.i25, label %if.end23, label %cleanup

if.end23:                                         ; preds = %invoke.cont18
  %call25 = invoke noundef nonnull align 8 dereferenceable(64) ptr @_Z34uspoof_getSkeletonUnicodeString_75PK13USpoofCheckerjRKN6icu_7513UnicodeStringERS3_P10UErrorCode(ptr noundef %sc, i32 poison, ptr noundef nonnull align 8 dereferenceable(64) %reordered, ptr noundef nonnull align 8 dereferenceable(64) %dest, ptr noundef nonnull %status)
          to label %cleanup unwind label %lpad

cleanup:                                          ; preds = %if.end23, %invoke.cont18, %if.then12
  call void @_ZN6icu_7513UnicodeStringD1Ev(ptr noundef nonnull align 8 dereferenceable(64) %reordered) #6
  br label %return

return:                                           ; preds = %cleanup, %if.then6, %if.then
  ret ptr %dest
}